(dp0
S'saves'
p1
I1
sS'suspenseful'
p2
I1
sS'whoopi'
p3
I8
sS'oldest'
p4
I1
sS'whoope'
p5
I1
sS'votes'
p6
I1
sS'edward'
p7
I5
sS'under'
p8
I2
sS'rickman'
p9
I5
sS'worth'
p10
I4
sS'@'
p11
I1
sS'rise'
p12
I1
sS'smith--are'
p13
I1
sS'sellers'
p14
I4
sS'definetly'
p15
I1
sS'every'
p16
I12
sS'jack'
p17
I5
sS'outdoing'
p18
I1
sS'low-budget'
p19
I1
sS'school'
p20
I3
sS'venue'
p21
I1
sS'najimy'
p22
I1
sS'cher'
p23
I2
sS'surrounding'
p24
I1
sS'second'
p25
I2
sS'fabulous'
p26
I2
sS'7th'
p27
I1
sS'kidnap'
p28
I2
sS'shining'
p29
I1
sS'even'
p30
I17
sS'established'
p31
I1
sS'hate'
p32
I1
sS'cooking'
p33
I1
sS'revolves'
p34
I1
sS'plodding'
p35
I2
sS'designing'
p36
I1
sS'new'
p37
I7
sS'ever'
p38
I14
sS'disney'
p39
I1
sS'told'
p40
I2
sS'extremly'
p41
I1
sS'kicked'
p42
I2
sS'simultaneously'
p43
I1
sS'reporter'
p44
I1
sS'mel'
p45
I10
sS'never'
p46
I8
sS'richest'
p47
I1
sS'here'
p48
I3
sS'met'
p49
I1
sS'cult'
p50
I1
sS'path'
p51
I1
sS'70s'
p52
I2
sS'kids'
p53
I5
sS'daughter'
p54
I3
sS'uplifting'
p55
I1
sS'items'
p56
I1
sS'leaves'
p57
I1
sS'changed'
p58
I1
sS'robin'
p59
I2
sS'all-black'
p60
I1
sS'deserves'
p61
I2
sS'fantastic'
p62
I7
sS'carl'
p63
I1
sS'latifah'
p64
I2
sS'highly'
p65
I6
sS'total'
p66
I2
sS'univ'
p67
I1
sS'plot'
p68
I14
sS'would'
p69
I25
sS'hospital'
p70
I1
sS'movie-'
p71
I1
sS'plod'
p72
I1
sS'music'
p73
I8
sS'recommend'
p74
I9
sS'type'
p75
I1
sS'until'
p76
I3
sS'holy'
p77
I1
sS'relax'
p78
I1
sS'oscar'
p79
I1
sS'"i'
p80
I2
sS'phone'
p81
I1
sS'excellent'
p82
I10
sS'hold'
p83
I1
sS'must'
p84
I12
sS'shoot'
p85
I2
sS'1990'
p86
I1
sS'join'
p87
I1
sS'divorced'
p88
I1
sS'1996'
p89
I1
sS'work'
p90
I8
sS'entertained'
p91
I1
sS'movies'
p92
I28
sS'itself'
p93
I1
sS'mr'
p94
I1
sS'exceptions'
p95
I1
sS'my'
p96
I43
sS'example'
p97
I1
sS'give'
p98
I5
sS'household'
p99
I1
sS'laughs'
p100
I1
sS'strangelove'
p101
I1
sS'involve'
p102
I1
sS'want'
p103
I17
sS'keep'
p104
I2
sS'attract'
p105
I1
sS'cartoon-like'
p106
I1
sS'end'
p107
I10
sS'knows'
p108
I1
sS'laugh-out-loud'
p109
I2
sS'provide'
p110
I1
sS'one-liners'
p111
I1
sS'how'
p112
I16
sS'amazing'
p113
I3
sS'writers'
p114
I1
sS'ordinary'
p115
I2
sS'untill'
p116
I1
sS'pokes'
p117
I1
sS'beauty'
p118
I3
sS'mess'
p119
I1
sS'earlier'
p120
I1
sS'wrong'
p121
I6
sS'jumping'
p122
I1
sS'destined'
p123
I1
sS'danny'
p124
I1
sS'attempt'
p125
I1
sS'appreciate'
p126
I1
sS'subplots'
p127
I1
sS'allison'
p128
I1
sS'upside'
p129
I1
sS'keeps'
p130
I5
sS'worst'
p131
I1
sS'origionality'
p132
I1
sS'make'
p133
I11
sS'executed'
p134
I1
sS'office'
p135
I1
sS'over'
p136
I11
sS'satisfied'
p137
I1
sS'murray'
p138
I3
sS'befall'
p139
I1
sS'affect'
p140
I1
sS'mayor'
p141
I1
sS'before'
p142
I3
sS'fit'
p143
I2
sS'highlights'
p144
I1
sS'diffrent'
p145
I1
sS','
p146
I377
sS'imo'
p147
I1
sS'better'
p148
I13
sS'understated'
p149
I1
sS'wales'
p150
I1
sS'weeks'
p151
I1
sS'schmidt'
p152
I9
sS'ready-'
p153
I1
sS'subtlties'
p154
I1
sS'luved'
p155
I1
sS'then'
p156
I10
sS'them'
p157
I10
sS'songwriter'
p158
I1
sS'jerking'
p159
I1
sS'collide'
p160
I1
sS'break'
p161
I1
sS'bang'
p162
I1
sS'drinking'
p163
I1
sS'they'
p164
I25
sS'yourself'
p165
I2
sS'meat'
p166
I1
sS'mcgonagall'
p167
I1
sS'choir'
p168
I1
sS'hadn'
p169
I1
sS'went'
p170
I8
sS'side'
p171
I3
sS'luck'
p172
I1
sS'schemes'
p173
I1
sS'financial'
p174
I1
sS'series'
p175
I3
sS'vote'
p176
I1
sS'combining'
p177
I1
sS'collector'
p178
I1
sS'comedies'
p179
I4
sS'brings'
p180
I3
sS'rv'
p181
I1
sS'god'
p182
I2
sS'hooked'
p183
I1
sS'strangers'
p184
I1
sS're'
p185
I9
sS'laid'
p186
I1
sS'got'
p187
I7
sS'bitingly'
p188
I1
sS'clarence'
p189
I1
sS'given'
p190
I3
sS'free'
p191
I1
sS'masterpiece'
p192
I1
sS'struggle'
p193
I1
sS'wanted'
p194
I1
sS'bates'
p195
I7
sS'created'
p196
I1
sS'starts'
p197
I1
sS'days'
p198
I1
sS'outfits'
p199
I1
sS'flawless'
p200
I1
sS'heck'
p201
I1
sS'shootin'
p202
I1
sS'loud'
p203
I1
sS'weaver---catherine'
p204
I1
sS'maggie'
p205
I1
sS'appeals'
p206
I1
sS'steroids'
p207
I1
sS'grade'
p208
I1
sS'rank'
p209
I1
sS'accidentally'
p210
I1
sS'another'
p211
I5
sS'wasn'
p212
I7
sS'force'
p213
I1
sS'comic'
p214
I3
sS'hood'
p215
I2
sS'likely'
p216
I1
sS'top'
p217
I10
sS'girls'
p218
I12
sS'elevator'
p219
I1
sS'master'
p220
I1
sS'too'
p221
I13
sS'tom'
p222
I6
sS'john'
p223
I12
sS'carrey'
p224
I7
sS'listen'
p225
I1
sS'predictably'
p226
I2
sS'took'
p227
I4
sS'predictable'
p228
I2
sS'somewhat'
p229
I1
sS'helen'
p230
I3
sS'begins'
p231
I1
sS'romp'
p232
I1
sS'roles'
p233
I2
sS'scenes'
p234
I7
sS'matter'
p235
I1
sS'-----todd'
p236
I1
sS'silly'
p237
I1
sS'friend'
p238
I3
sS'childlike'
p239
I1
sS'hacking'
p240
I1
sS'feeling'
p241
I3
sS'powers'
p242
I2
sS'screenplay'
p243
I1
sS'fashion'
p244
I1
sS'boston'
p245
I1
sS'modern'
p246
I1
sS'mind'
p247
I3
sS'talking'
p248
I4
sS'corny'
p249
I1
sS'funnyyo'
p250
I1
sS'seen'
p251
I18
sS'seem'
p252
I1
sS'tells'
p253
I2
sS'relatively'
p254
I1
sS'forced'
p255
I1
sS'climate'
p256
I1
sS'latter'
p257
I1
sS'-'
p258
I11
sS'recommended'
p259
I4
sS'luxury'
p260
I1
sS'laughed'
p261
I1
sS'13-19'
p262
I1
sS'reese'
p263
I1
sS'nobody'
p264
I1
sS'though'
p265
I8
sS'bruce'
p266
I17
sS'cinematic'
p267
I1
sS'regular'
p268
I1
sS'letter'
p269
I1
sS'jean'
p270
I1
sS'thriller'
p271
I4
sS'singer'
p272
I2
sS'don'
p273
I18
sS'neighborhoods'
p274
I1
sS'prevails'
p275
I1
sS'camp'
p276
I1
sS'm'
p277
I9
sS'definitely'
p278
I4
sS'entertaining'
p279
I2
sS'wheelers'
p280
I1
sS'came'
p281
I4
sS'jurisdiction'
p282
I1
sS'brilliance'
p283
I1
sS'ending'
p284
I5
sS'musicals'
p285
I1
sS'lethal'
p286
I1
sS'bail'
p287
I1
sS'enjoyed'
p288
I5
sS'apace'
p289
I1
sS'touches'
p290
I2
sS'situations'
p291
I3
sS'minnesota'
p292
I1
sS'breath-taking'
p293
I1
sS'jeepin'
p294
I1
sS'theme'
p295
I1
sS'touched'
p296
I1
sS'rich'
p297
I3
sS'folks'
p298
I1
sS'boyfriend'
p299
I1
sS'do'
p300
I13
sS'culkin'
p301
I4
sS'rock'
p302
I1
sS'watch'
p303
I17
sS'splittingly'
p304
I1
sS'christopher'
p305
I3
sS'nasty'
p306
I1
sS'dr'
p307
I2
sS'about-'
p308
I1
sS'runs'
p309
I2
sS'bar'
p310
I5
sS'bad'
p311
I9
sS'yippie'
p312
I1
sS'thanks'
p313
I1
sS'sensitivity'
p314
I1
sS'nun'
p315
I5
sS'depends'
p316
I1
sS'decided'
p317
I1
sS'reviewer'
p318
I1
sS'hero'
p319
I2
sS'scrutinizing'
p320
I1
sS'best'
p321
I36
sS'subject'
p322
I1
sS'00'
p323
I1
sS'said'
p324
I1
sS'lots'
p325
I5
sS'away'
p326
I3
sS'yet'
p327
I7
sS'stamps'
p328
I1
sS'hopefully'
p329
I1
sS'sorts'
p330
I1
sS'we'
p331
I17
sS'men'
p332
I1
sS'nature'
p333
I1
sS'confusion'
p334
I1
sS'hilarius'
p335
I1
sS'however'
p336
I6
sS'vernon'
p337
I1
sS'cut'
p338
I1
sS'wear'
p339
I1
sS'clues'
p340
I1
sS'faced'
p341
I1
sS'cop'
p342
I5
sS'essentially'
p343
I1
sS'cox'
p344
I1
sS'hounding'
p345
I1
sS'planned'
p346
I1
sS'com'
p347
I1
sS'asked'
p348
I1
sS'tough'
p349
I3
sS'had'
p350
I20
sS'arsenio'
p351
I1
sS'250'
p352
I1
sS'comical'
p353
I1
sS'basis'
p354
I1
sS'three'
p355
I6
sS'been'
p356
I12
sS'.'
p357
I601
sS'much'
p358
I21
sS'tina'
p359
I1
sS'expected'
p360
I1
sS'parents'
p361
I1
sS'board'
p362
I1
sS'life'
p363
I15
sS'innocent'
p364
I1
sS'sooooo'
p365
I1
sS'lukewarm'
p366
I1
sS'dave'
p367
I1
sS'child'
p368
I3
sS'catch'
p369
I1
sS'worked'
p370
I3
sS'postmodern'
p371
I1
sS'has'
p372
I29
sS'air'
p373
I1
sS'ugly'
p374
I9
sS'lizard'
p375
I1
sS'suppose'
p376
I1
sS'depp'
p377
I2
sS'imdb'
p378
I1
sS'voice'
p379
I1
sS'played'
p380
I4
sS'is'
p381
I190
sS'it'
p382
I274
sS'shame'
p383
I1
sS'anticipating'
p384
I1
sS'tugged'
p385
I1
sS'in'
p386
I137
sS'charactors'
p387
I1
sS'if'
p388
I25
sS'wounderful'
p389
I1
sS'suggest'
p390
I1
sS'realizing'
p391
I1
sS'jerry'
p392
I4
sS'swarthy'
p393
I1
sS'success'
p394
I1
sS'several'
p395
I1
sS'grows'
p396
I2
sS'evil'
p397
I1
sS'norwegian'
p398
I1
sS'characters'
p399
I13
sS'hans'
p400
I1
sS'blamed'
p401
I1
sS'kid'
p402
I3
sS'kept'
p403
I2
sS'scenario'
p404
I1
sS'tho'
p405
I1
sS'i-can-kick-high-so-bullets-can'
p406
I1
sS'greatest'
p407
I5
sS'claims'
p408
I1
sS'the'
p409
I497
sS'musical'
p410
I3
sS'left'
p411
I6
sS'yeh'
p412
I1
sS'just'
p413
I23
sS'enjoy'
p414
I7
sS'thumbs'
p415
I2
sS'yep'
p416
I1
sS'yes'
p417
I1
sS'portrayed'
p418
I1
sS'full-feature'
p419
I1
sS'note'
p420
I1
sS'hills'
p421
I1
sS'character'
p422
I8
sS'belongs'
p423
I1
sS'teenager'
p424
I1
sS'easy'
p425
I2
sS'save'
p426
I3
sS'hav'
p427
I1
sS'gave'
p428
I3
sS'mcdormand'
p429
I4
sS'mocked'
p430
I1
sS'casting'
p431
I1
sS'vin'
p432
I1
sS'survival'
p433
I1
sS'possibly'
p434
I1
sS'julia'
p435
I1
sS'quicksand'
p436
I1
sS'performance'
p437
I2
sS'unique'
p438
I1
sS'dreams'
p439
I4
sS'apart'
p440
I1
sS'hunt'
p441
I3
sS'dishonest'
p442
I1
sS'night'
p443
I1
sS'mmmmmmmmm'
p444
I1
sS'right'
p445
I7
sS'old'
p446
I3
sS'deal'
p447
I4
sS'people'
p448
I14
sS'deaf'
p449
I1
sS'somehow'
p450
I1
sS'born'
p451
I2
sS'donald'
p452
I1
sS'escape'
p453
I1
sS'blatently'
p454
I1
sS'humor'
p455
I6
sS'for'
p456
I73
sS'bottom'
p457
I2
sS'/'
p458
I10
sS'witty'
p459
I1
sS'everything'
p460
I3
sS'adorable'
p461
I2
sS'christmas'
p462
I5
sS'peed'
p463
I1
sS'losing'
p464
I1
sS'memorable'
p465
I1
sS'post'
p466
I2
sS'super'
p467
I1
sS'dollars'
p468
I1
sS'citizens'
p469
I1
sS'choke'
p470
I1
sS'surround'
p471
I1
sS'cliche'
p472
I1
sS'match'
p473
I1
sS'callmetootieblows'
p474
I1
sS'raised'
p475
I1
sS'whats'
p476
I2
sS're-watching'
p477
I1
sS'marshall'
p478
I1
sS'down'
p479
I6
sS'thankful'
p480
I1
sS'narration'
p481
I1
sS'stumble'
p482
I1
sS'east'
p483
I1
sS'bushemi'
p484
I1
sS'appriciated'
p485
I1
sS'tennis'
p486
I1
sS'fight'
p487
I1
sS'absolutely'
p488
I5
sS'anderson'
p489
I1
sS'way'
p490
I13
sS'call'
p491
I3
sS'was'
p492
I162
sS'happy'
p493
I3
sS'head'
p494
I2
sS'form'
p495
I3
sS'offer'
p496
I1
sS'showalter'
p497
I2
sS'hear'
p498
I1
sS'true'
p499
I9
sS'happen'
p500
I3
sS'inside'
p501
I1
sS'attached'
p502
I1
sS'tell'
p503
I3
sS'defidently'
p504
I1
sS'auditioning'
p505
I1
sS'emotional'
p506
I1
sS'daddy'
p507
I2
sS'juvenile'
p508
I1
sS'classic'
p509
I14
sS'nudity'
p510
I1
sS'grueber'
p511
I1
sS'believable'
p512
I4
sS'annoying'
p513
I1
sS'mold'
p514
I1
sS'trip'
p515
I3
sS'physical'
p516
I2
sS'radioed'
p517
I1
sS'no'
p518
I6
sS'when'
p519
I29
sS'actor'
p520
I9
sS'ny'
p521
I2
sS'interested'
p522
I1
sS'role'
p523
I10
sS'escapism'
p524
I1
sS'warehouse'
p525
I1
sS'tie'
p526
I1
sS'roll'
p527
I1
sS'picture'
p528
I2
sS'brothers'
p529
I6
sS'dies'
p530
I2
sS'felt'
p531
I3
sS'fell'
p532
I4
sS'origional'
p533
I1
sS'aware'
p534
I1
sS'explosions'
p535
I4
sS'younger'
p536
I1
sS'faster'
p537
I1
sS'glass'
p538
I1
sS'painting'
p539
I1
sS'together'
p540
I7
sS'time'
p541
I30
sS'serious'
p542
I1
sS'paced'
p543
I1
sS'basically'
p544
I2
sS'coach'
p545
I1
sS'whoever'
p546
I1
sS'dance'
p547
I2
sS'skip'
p548
I3
sS'celebs'
p549
I1
sS'buscimi'
p550
I1
sS'bandits'
p551
I1
sS'certainly'
p552
I1
sS'yummy'
p553
I1
sS'filming'
p554
I1
sS'absolutly'
p555
I1
sS'father'
p556
I2
sS'disgusting'
p557
I1
sS'finally'
p558
I2
sS'a-list'
p559
I1
sS'macho'
p560
I1
sS'me'
p561
I26
sS'over-the-top'
p562
I1
sS'makkena'
p563
I1
sS'sequal'
p564
I1
sS'seemingly'
p565
I1
sS'vegas'
p566
I1
sS'stays'
p567
I1
sS'bartender'
p568
I2
sS'blast'
p569
I1
sS'minute'
p570
I1
sS'cool'
p571
I5
sS'cheerleaders'
p572
I2
sS'lohan'
p573
I1
sS'did'
p574
I8
sS'turns'
p575
I3
sS'suprised'
p576
I1
sS'quick'
p577
I1
sS'guy'
p578
I19
sS'round'
p579
I1
sS'upper'
p580
I1
sS'unexpected'
p581
I1
sS'says'
p582
I5
sS'dealing'
p583
I1
sS'heavyweight'
p584
I1
sS'worn'
p585
I1
sS'unravels'
p586
I2
sS'adds'
p587
I3
sS'appear'
p588
I1
sS'uniform'
p589
I1
sS'goes'
p590
I5
sS'crooks'
p591
I1
sS'filled'
p592
I2
sS'buscemi'
p593
I3
sS'supporting'
p594
I2
sS'heavily'
p595
I1
sS'helin'
p596
I1
sS'alone'
p597
I4
sS'along'
p598
I3
sS'teaches'
p599
I1
sS'appears'
p600
I1
sS'change'
p601
I3
sS'wait'
p602
I2
sS'boy'
p603
I6
sS'hotties'
p604
I1
sS'brilliant'
p605
I7
sS'blowin'
p606
I1
sS'suggestion'
p607
I1
sS'usually'
p608
I1
sS'weird'
p609
I1
sS'teenage'
p610
I2
sS'regardless'
p611
I2
sS'retiree'
p612
I1
sS'humour'
p613
I1
sS'schlocky'
p614
I1
sS'marvelous'
p615
I1
sS'fake'
p616
I2
sS'everybody'
p617
I2
sS'buseim'
p618
I1
sS'projector'
p619
I1
sS'working'
p620
I1
sS'prove'
p621
I2
sS'sake'
p622
I1
sS'angry'
p623
I2
sS'dude'
p624
I5
sS'live'
p625
I1
sS'wood'
p626
I2
sS'films'
p627
I11
sS'thru'
p628
I1
sS'today'
p629
I2
sS'loving'
p630
I1
sS'visual'
p631
I1
sS'shafts'
p632
I1
sS'effort'
p633
I2
sS'wanda'
p634
I1
sS'graphic'
p635
I1
sS'car'
p636
I2
sS'sour'
p637
I1
sS'values'
p638
I1
sS'can'
p639
I35
sS'royal'
p640
I2
sS'growing'
p641
I1
sS'making'
p642
I4
sS'laughter'
p643
I1
sS'gunfire'
p644
I1
sS'heart'
p645
I2
sS'chix'
p646
I1
sS'figure'
p647
I2
sS'expanding'
p648
I1
sS'awesome'
p649
I7
sS'kye'
p650
I1
sS'topic'
p651
I1
sS'heard'
p652
I1
sS'thrilled'
p653
I1
sS'o'
p654
I2
sS'stole'
p655
I1
sS'pink'
p656
I1
sS'memorys'
p657
I1
sS'watching'
p658
I7
sS'lounge'
p659
I1
sS'till'
p660
I1
sS'fourth'
p661
I1
sS'speaks'
p662
I1
sS'146'
p663
I1
sS'snaps'
p664
I1
sS'laundry'
p665
I1
sS'may'
p666
I3
sS'convincingly'
p667
I2
sS'4th'
p668
I1
sS'date'
p669
I3
sS'such'
p670
I8
sS'guys'
p671
I7
sS'man'
p672
I9
sS'remember'
p673
I2
sS'muzik'
p674
I1
sS'ordinarily'
p675
I1
sS'st'
p676
I1
sS'cannot'
p677
I1
sS'so'
p678
I44
sS'representation'
p679
I1
sS'pulled'
p680
I1
sS'talk'
p681
I3
sS'typical'
p682
I3
sS'cute'
p683
I12
sS'shoes'
p684
I2
sS'rabbi'
p685
I4
sS'pointed'
p686
I2
sS'mainly'
p687
I1
sS'years'
p688
I6
sS'brain'
p689
I2
sS'mackauley'
p690
I1
sS'still'
p691
I15
sS'parralell'
p692
I1
sS'police'
p693
I3
sS'interesting'
p694
I3
sS'jim'
p695
I9
sS'hot'
p696
I5
sS'ours'
p697
I1
sS'main'
p698
I1
sS'mommy'
p699
I2
sS'finance'
p700
I1
sS'nod'
p701
I1
sS'introduce'
p702
I1
sS'adrenaline'
p703
I1
sS'half'
p704
I1
sS'not'
p705
I40
sS'in-laws'
p706
I1
sS'now'
p707
I6
sS'nor'
p708
I1
sS'filmed'
p709
I1
sS'didn'
p710
I4
sS'outrageously'
p711
I1
sS'denmark'
p712
I1
sS'em'
p713
I1
sS'directing'
p714
I1
sS'yeah'
p715
I3
sS'goose'
p716
I1
sS'year'
p717
I4
sS'girl'
p718
I12
sS'morning'
p719
I1
sS'surprise'
p720
I2
sS'hysteria'
p721
I1
sS'shown'
p722
I2
sS'macauley'
p723
I1
sS'looking'
p724
I6
sS'seriously'
p725
I1
sS'priest'
p726
I4
sS'fargo'
p727
I7
sS'formula'
p728
I1
sS'shows'
p729
I7
sS'after'
p730
I7
sS'theory'
p731
I1
sS'brooks'
p732
I3
sS'quite'
p733
I1
sS'bumps'
p734
I1
sS'marino'
p735
I1
sS'skillfully'
p736
I1
sS'inevitable'
p737
I1
sS'care'
p738
I3
sS'couldn'
p739
I3
sS'thing'
p740
I6
sS'lindsey'
p741
I1
sS'place'
p742
I7
sS'husband'
p743
I1
sS'think'
p744
I30
sS'first'
p745
I12
sS'blind'
p746
I1
sS'cheese'
p747
I1
sS'flying'
p748
I2
sS'potter'
p749
I1
sS'one'
p750
I61
sS'carry'
p751
I1
sS'sounds'
p752
I1
sS'george'
p753
I1
sS'city'
p754
I1
sS'little'
p755
I9
sS'personalities'
p756
I1
sS'convent'
p757
I1
sS'plastic'
p758
I1
sS'anyone'
p759
I5
sS'2'
p760
I4
sS'white'
p761
I2
sS'speaking'
p762
I1
sS'gives'
p763
I4
sS'eyes'
p764
I1
sS'that'
p765
I100
sS'season'
p766
I2
sS'huh'
p767
I1
sS'alan'
p768
I4
sS'cheerleading'
p769
I1
sS'released'
p770
I2
sS'sequels'
p771
I1
sS'butt'
p772
I3
sS'than'
p773
I13
sS'milton'
p774
I2
sS'television'
p775
I4
sS'12'
p776
I1
sS'rival'
p777
I1
sS'gotta'
p778
I2
sS'non-stop'
p779
I1
sS'hugable'
p780
I1
sS'ventura'
p781
I1
sS'future'
p782
I1
sS'were'
p783
I21
sS'asleep'
p784
I2
sS'dissapointed'
p785
I1
sS'and'
p786
I294
sS'angel'
p787
I1
sS'quirky'
p788
I1
sS'turned'
p789
I1
sS'sad'
p790
I4
sS'say'
p791
I4
sS'rent'
p792
I2
sS'anger'
p793
I1
sS'saw'
p794
I5
sS'any'
p795
I6
sS'kevin'
p796
I2
sS'ideas'
p797
I1
sS'terrific'
p798
I3
sS'goodman'
p799
I1
sS'take'
p800
I7
sS'forming'
p801
I1
sS'wanting'
p802
I1
sS'channel'
p803
I1
sS'therefor'
p804
I1
sS'sure'
p805
I3
sS'mel-hugs'
p806
I1
sS'theatre'
p807
I2
sS'arguing'
p808
I2
sS'knew'
p809
I1
sS'paid'
p810
I2
sS'falls'
p811
I1
sS'boiling'
p812
I1
sS'pleasure'
p813
I1
sS'pair'
p814
I1
sS'definatly'
p815
I1
sS'forever'
p816
I3
sS'peice'
p817
I1
sS'especially'
p818
I12
sS'flawlessly'
p819
I1
sS'dream'
p820
I1
sS'worknight'
p821
I1
sS'playing'
p822
I4
sS'senior'
p823
I1
sS'alone-'
p824
I1
sS'masturbation'
p825
I1
sS'detective'
p826
I1
sS'madison'
p827
I1
sS'show'
p828
I7
sS'german'
p829
I1
sS'merit'
p830
I1
sS'heart-warming'
p831
I1
sS'slow'
p832
I1
sS'favor'
p833
I1
sS'3'
p834
I5
sS'crime'
p835
I1
sS'only'
p836
I13
sS'going'
p837
I9
sS'black'
p838
I7
sS'cary'
p839
I1
sS'exaggeration'
p840
I1
sS'get'
p841
I14
sS'hostage'
p842
I2
sS'routine'
p843
I1
sS'truly'
p844
I5
sS'simplistic'
p845
I1
sS'killers'
p846
I1
sS'nearly'
p847
I2
sS'carreys'
p848
I1
sS'gem'
p849
I1
sS'seldom'
p850
I1
sS'summary'
p851
I1
sS'naked'
p852
I1
sS'jokes'
p853
I5
sS'stupid'
p854
I2
sS'landlord'
p855
I1
sS'through'
p856
I11
sS'believeable'
p857
I1
sS'where'
p858
I12
sS'outsmarting'
p859
I1
sS'vision'
p860
I1
sS'replies'
p861
I1
sS'seat'
p862
I2
sS'college'
p863
I4
sS'ruined'
p864
I1
sS'fails'
p865
I1
sS'ways'
p866
I3
sS'harvey'
p867
I1
sS'definite'
p868
I1
sS'enough'
p869
I4
sS'between'
p870
I3
sS'reading'
p871
I1
sS'across'
p872
I3
sS'brainard'
p873
I2
sS'mature'
p874
I1
sS'screen'
p875
I1
sS'fast-talking'
p876
I1
sS'killing'
p877
I1
sS'blame'
p878
I1
sS'thrilling'
p879
I5
sS'tub'
p880
I1
sS'come'
p881
I7
sS'kirsten'
p882
I2
sS'dates'
p883
I1
sS'talented'
p884
I4
sS'gimmicky'
p885
I1
sS'many'
p886
I10
sS'called'
p887
I5
sS's'
p888
I86
sS'aura'
p889
I1
sS'charecter'
p890
I1
sS'finkles'
p891
I1
sS'waterbed'
p892
I1
sS'comes'
p893
I3
sS'among'
p894
I2
sS'afterwards'
p895
I1
sS'stretched'
p896
I1
sS'boat'
p897
I1
sS'awsome'
p898
I1
sS'cares'
p899
I1
sS'carey'
p900
I2
sS'mark'
p901
I1
sS'mars'
p902
I1
sS'in-law'
p903
I1
sS'mary'
p904
I2
sS'wants'
p905
I4
sS'direction'
p906
I1
sS'robbed'
p907
I1
sS'formed'
p908
I1
sS'dramatic'
p909
I1
sS'tenenbaums'
p910
I1
sS'andrea'
p911
I1
sS'those'
p912
I12
sS'paying'
p913
I2
sS'myself'
p914
I1
sS'predominately'
p915
I1
sS'these'
p916
I3
sS'offbeat'
p917
I1
sS'cast'
p918
I10
sS'proves'
p919
I3
sS'joke'
p920
I1
sS'eugene'
p921
I1
sS'punches'
p922
I1
sS'twists'
p923
I1
sS'someone'
p924
I2
sS'ironic'
p925
I1
sS'engages'
p926
I1
sS'worry'
p927
I1
sS'different'
p928
I3
sS'williams'
p929
I1
sS'rooting'
p930
I2
sS'pay'
p931
I1
sS'granted'
p932
I2
sS'caulkin'
p933
I1
sS'same'
p934
I6
sS'check'
p935
I1
sS'food'
p936
I1
sS'speech'
p937
I1
sS'constructed'
p938
I2
sS'events'
p939
I1
sS'dated'
p940
I1
sS'status'
p941
I1
sS'noble'
p942
I1
sS'sweeper'
p943
I1
sS'persona'
p944
I1
sS'barefoot'
p945
I1
sS'rimes'
p946
I1
sS'driven'
p947
I1
sS'running'
p948
I1
sS'delicate'
p949
I1
sS'favorites'
p950
I1
sS'totally'
p951
I3
sS'wheels'
p952
I1
sS'hubba'
p953
I1
sS'theater'
p954
I1
sS'without'
p955
I3
sS'charged'
p956
I1
sS'summer'
p957
I1
sS'gangs'
p958
I1
sS'being'
p959
I9
sS'money'
p960
I4
sS'actress'
p961
I1
sS'violent'
p962
I4
sS'ch'
p963
I1
sS'touch'
p964
I1
sS'n'
p965
I1
sS'personals'
p966
I1
sS'segal'
p967
I1
sS'clueless'
p968
I2
sS'seems'
p969
I2
sS'except'
p970
I1
sS'lets'
p971
I2
sS'4'
p972
I3
sS'plenty'
p973
I1
sS'wiseman'
p974
I1
sS'swope'
p975
I1
sS'real'
p976
I4
sS'rushmore'
p977
I2
sS'lauphs'
p978
I1
sS'around'
p979
I11
sS'spectacular'
p980
I1
sS'read'
p981
I3
sS'dark'
p982
I5
sS'mom'
p983
I1
sS'parody'
p984
I1
sS'mob'
p985
I1
sS'dare'
p986
I1
sS'stranger'
p987
I1
sS'pregnant'
p988
I2
sS'oddly'
p989
I1
sS'facing'
p990
I1
sS'audience'
p991
I1
sS'either'
p992
I1
sS'beverly'
p993
I1
sS'robbers'
p994
I1
sS'debut'
p995
I2
sS'laugh'
p996
I12
sS'competition'
p997
I1
sS'eddie'
p998
I1
sS'mood'
p999
I3
sS'audiance'
p1000
I1
sS'willis'
p1001
I21
sS'moon'
p1002
I1
sS'mcclane'
p1003
I1
sS'biased'
p1004
I1
sS'football'
p1005
I1
sS'business'
p1006
I1
sS'make-or-break'
p1007
I1
sS'innocence'
p1008
I1
sS'exciting'
p1009
I1
sS'stereotypes'
p1010
I1
sS'on'
p1011
I44
sS'jeez'
p1012
I1
sS'ok'
p1013
I1
sS'ace'
p1014
I4
sS'oh'
p1015
I2
sS'of'
p1016
I204
sS'industry'
p1017
I2
sS'capable'
p1018
I1
sS'favorite'
p1019
I12
sS'lifestyles'
p1020
I1
sS'wold'
p1021
I1
sS'act'
p1022
I4
sS'sadistic'
p1023
I1
sS'or'
p1024
I23
sS'road'
p1025
I2
sS'querky'
p1026
I1
sS'spinal'
p1027
I2
sS'portrayal'
p1028
I1
sS'nowadays'
p1029
I1
sS'your'
p1030
I25
sS'her'
p1031
I26
sS'hes'
p1032
I1
sS'aren'
p1033
I1
sS'assumed'
p1034
I1
sS'there'
p1035
I21
sS'stark'
p1036
I1
sS'start'
p1037
I1
sS'low'
p1038
I1
sS'stars'
p1039
I3
sS'slowly'
p1040
I2
sS'hysterical'
p1041
I6
sS'complete'
p1042
I1
sS'putney'
p1043
I1
sS'ended'
p1044
I2
sS'trying'
p1045
I7
sS'with'
p1046
I68
sS'rush'
p1047
I1
sS'flamboyant'
p1048
I1
sS'romantic'
p1049
I2
sS'hit-it'
p1050
I1
sS'dirty'
p1051
I1
sS'abuses'
p1052
I1
sS'ennui'
p1053
I1
sS'politically'
p1054
I1
sS'agree'
p1055
I3
sS'gone'
p1056
I2
sS'ad'
p1057
I1
sS'johnny'
p1058
I2
sS'cinema'
p1059
I1
sS'exhausted'
p1060
I2
sS'ah'
p1061
I1
sS'accents'
p1062
I2
sS'am'
p1063
I2
sS'al'
p1064
I1
sS'deep'
p1065
I2
sS'an'
p1066
I33
sS'as'
p1067
I62
sS'at'
p1068
I35
sS'girlfriend'
p1069
I2
sS'watched'
p1070
I1
sS'moves'
p1071
I1
sS'gruber'
p1072
I1
sS'film'
p1073
I49
sS'incorrect'
p1074
I1
sS'again'
p1075
I9
sS'retiring'
p1076
I1
sS'credibility'
p1077
I1
sS'green'
p1078
I6
sS'tight'
p1079
I1
sS'5'
p1080
I5
sS'lukskywlkr'
p1081
I1
sS'you'
p1082
I94
sS'gee-tar'
p1083
I1
sS'title'
p1084
I1
sS'obsessed'
p1085
I1
sS'offensive'
p1086
I1
sS'finale'
p1087
I1
sS'important'
p1088
I1
sS'track'
p1089
I1
sS'building'
p1090
I4
sS'thora'
p1091
I3
sS'calls'
p1092
I1
sS'wife'
p1093
I5
sS'nicolson'
p1094
I1
sS'directors'
p1095
I1
sS'u'
p1096
I4
sS'adam'
p1097
I6
sS'missouri'
p1098
I2
sS'alright'
p1099
I1
sS'songs'
p1100
I3
sS'starting'
p1101
I1
sS'original'
p1102
I7
sS'all'
p1103
I47
sS'befriend'
p1104
I1
sS'follow'
p1105
I3
sS'everyones'
p1106
I1
sS'children'
p1107
I2
sS'tv'
p1108
I4
sS'laughing'
p1109
I3
sS'to'
p1110
I201
sS'foster'
p1111
I4
sS'smile'
p1112
I1
sS'midwest'
p1113
I1
sS'sound'
p1114
I2
sS'woman'
p1115
I4
sS'worse'
p1116
I3
sS'hillarious'
p1117
I1
sS'very'
p1118
I38
sS'novel'
p1119
I1
sS'fan'
p1120
I2
sS'fall'
p1121
I1
sS'frankenstein'
p1122
I1
sS'difference'
p1123
I1
sS'liten'
p1124
I1
sS'enjoyable'
p1125
I1
sS'--'
p1126
I8
sS'list'
p1127
I4
sS'harry'
p1128
I2
sS'small'
p1129
I1
sS'flick'
p1130
I5
sS'ten'
p1131
I1
sS'past'
p1132
I2
sS'winds'
p1133
I1
sS'lawyer'
p1134
I1
sS'what'
p1135
I26
sS'stood'
p1136
I1
sS'witnessed'
p1137
I1
sS'elwes'
p1138
I1
sS'emotions'
p1139
I2
sS'public'
p1140
I1
sS'contrast'
p1141
I1
sS'hasn'
p1142
I1
sS'full'
p1143
I3
sS'hours'
p1144
I1
sS'shouldn'
p1145
I1
sS'mulroney'
p1146
I1
sS'strong'
p1147
I1
sS'tragedy'
p1148
I1
sS'search'
p1149
I1
sS'harrelson'
p1150
I2
sS'ahead'
p1151
I1
sS'finkle'
p1152
I3
sS'inspired'
p1153
I1
sS'creepy'
p1154
I1
sS'travails'
p1155
I1
sS'chipper'
p1156
I2
sS'advertising'
p1157
I1
sS'social'
p1158
I2
sS'action'
p1159
I24
sS'must-see'
p1160
I2
sS'followed'
p1161
I1
sS'family'
p1162
I6
sS'suddenly'
p1163
I2
sS'africa'
p1164
I2
sS'select'
p1165
I1
sS'flaws'
p1166
I1
sS'takes'
p1167
I3
sS'contains'
p1168
I1
sS'two'
p1169
I10
sS'taken'
p1170
I1
sS'kathey'
p1171
I1
sS'minor'
p1172
I1
sS'more'
p1173
I12
sS'teen'
p1174
I3
sS'flat'
p1175
I2
sS'door'
p1176
I1
sS'coyoty'
p1177
I1
sS'company'
p1178
I1
sS'fussed'
p1179
I1
sS'stick'
p1180
I1
sS'coyote'
p1181
I9
sS'town'
p1182
I1
sS'hour'
p1183
I1
sS'shelves'
p1184
I1
sS'patriarch'
p1185
I1
sS'bias'
p1186
I1
sS'male'
p1187
I3
sS'history'
p1188
I2
sS'beautiful'
p1189
I1
sS'purchases'
p1190
I1
sS'scam'
p1191
I1
sS'challenging'
p1192
I1
sS'numbers'
p1193
I1
sS'sense'
p1194
I6
sS'airplane'
p1195
I1
sS'mn'
p1196
I2
sS'robinson'
p1197
I1
sS'longest'
p1198
I1
sS'sci-fi'
p1199
I1
sS'!'
p1200
I145
sS'huge'
p1201
I2
sS'needs'
p1202
I4
sS'obnoxious'
p1203
I1
sS'ca-poots-kah'
p1204
I1
sS'rather'
p1205
I3
sS'hugh'
p1206
I1
sS'stayed'
p1207
I1
sS'sigourney'
p1208
I1
sS'unexpectantly'
p1209
I1
sS'ensemble'
p1210
I1
sS'ransom'
p1211
I2
sS'okay'
p1212
I2
sS'tried'
p1213
I1
sS'funny-'
p1214
I1
sS'advice'
p1215
I1
sS'frills'
p1216
I1
sS'soundtrack'
p1217
I3
sS'tries'
p1218
I2
sS'plane'
p1219
I1
sS'adventure'
p1220
I1
sS'coming'
p1221
I1
sS'a'
p1222
I306
sS'snotty'
p1223
I1
sS'hannibal'
p1224
I1
sS'jodie'
p1225
I4
sS')'
p1226
I26
sS'fictional'
p1227
I1
sS'phsychoville'
p1228
I1
sS'crafty'
p1229
I1
sS'chicks'
p1230
I1
sS'help'
p1231
I3
sS'reminded'
p1232
I1
sS'soon'
p1233
I1
sS'proverbial'
p1234
I1
sS'held'
p1235
I1
sS'isnt'
p1236
I1
sS'scott'
p1237
I1
sS'committed'
p1238
I2
sS'hell'
p1239
I3
sS'quagmire'
p1240
I1
sS'avenue'
p1241
I1
sS'its'
p1242
I12
sS'style'
p1243
I1
sS'comedic'
p1244
I4
sS'20'
p1245
I4
sS'actually'
p1246
I5
sS'late'
p1247
I3
sS'parts'
p1248
I6
sS'messes'
p1249
I1
sS'might'
p1250
I1
sS'yi'
p1251
I1
sS'wouldn'
p1252
I1
sS'good'
p1253
I60
sS'seeking'
p1254
I2
sS'ya'
p1255
I1
sS'cupcake'
p1256
I1
sS'wouldv'
p1257
I1
sS'viewers'
p1258
I1
sS'sucked'
p1259
I1
sS'easily'
p1260
I1
sS'everytime'
p1261
I1
sS'always'
p1262
I7
sS'tear'
p1263
I1
sS'token'
p1264
I1
sS'goofy'
p1265
I1
sS'stopped'
p1266
I1
sS'mastered'
p1267
I1
sS'die'
p1268
I8
sS'found'
p1269
I3
sS'friendship'
p1270
I1
sS'trailer'
p1271
I1
sS'mainheimer'
p1272
I1
sS'everyone'
p1273
I10
sS'mental'
p1274
I1
sS'stiller'
p1275
I5
sS'house'
p1276
I2
sS'hare'
p1277
I1
sS'hard'
p1278
I11
sS'idea'
p1279
I3
sS'gun'
p1280
I2
sS'engaging'
p1281
I1
sS'expect'
p1282
I2
sS'murders'
p1283
I1
sS'insurance'
p1284
I2
sS'really'
p1285
I37
sS'alcohol'
p1286
I1
sS'since'
p1287
I6
sS'acting'
p1288
I8
sS'callmetootie'
p1289
I2
sS'issue'
p1290
I1
sS'ass'
p1291
I1
sS'pathetic'
p1292
I1
sS'story'
p1293
I15
sS'pleasant'
p1294
I1
sS'circumstancs'
p1295
I1
sS'put'
p1296
I6
sS'catipulted'
p1297
I1
sS'beginning'
p1298
I2
sS'director'
p1299
I1
sS'needing'
p1300
I1
sS'terrible'
p1301
I1
sS'noted'
p1302
I1
sS'american'
p1303
I2
sS'expecting'
p1304
I1
sS'fallen'
p1305
I1
sS'feed'
p1306
I1
sS'major'
p1307
I1
sS'dont'
p1308
I1
sS'wilder'
p1309
I1
sS'feel'
p1310
I9
sS'relate'
p1311
I2
sS'thereafter'
p1312
I1
sS'humourous'
p1313
I1
sS'done'
p1314
I3
sS'anonymity'
p1315
I1
sS'miss'
p1316
I2
sS'parkas'
p1317
I1
sS'guess'
p1318
I1
sS'"'
p1319
I1
sS'guest'
p1320
I3
sS'script'
p1321
I4
sS'5th'
p1322
I1
sS'least'
p1323
I1
sS'wonderful'
p1324
I7
sS'steals'
p1325
I3
sS'scheme'
p1326
I1
sS'store'
p1327
I2
sS'behind'
p1328
I1
sS'jamie'
p1329
I1
sS'appreciation'
p1330
I1
sS'part'
p1331
I7
sS'chapelle'
p1332
I1
sS'believe'
p1333
I2
sS'kind'
p1334
I7
sS'grew'
p1335
I1
sS'bitter'
p1336
I2
sS'keeper'
p1337
I1
sS'contrary'
p1338
I1
sS'supposed'
p1339
I1
sS'sub-plot'
p1340
I1
sS'dang'
p1341
I1
sS'amass'
p1342
I1
sS'storytelling'
p1343
I1
sS'outstanding'
p1344
I2
sS'wasnt'
p1345
I1
sS'actuary'
p1346
I1
sS'fights'
p1347
I2
sS'ages'
p1348
I1
sS'crazy'
p1349
I2
sS'alike'
p1350
I1
sS'macaulay'
p1351
I2
sS'vulnerable'
p1352
I1
sS'wilson'
p1353
I1
sS'dancing'
p1354
I5
sS'also'
p1355
I16
sS'applauded'
p1356
I1
sS'commentary'
p1357
I1
sS'play'
p1358
I4
sS'hires'
p1359
I1
sS'eventully'
p1360
I1
sS'reach'
p1361
I1
sS'quota'
p1362
I1
sS'macy'
p1363
I6
sS'most'
p1364
I12
sS'charm'
p1365
I1
sS'plan'
p1366
I2
sS'nothing'
p1367
I6
sS'extremely'
p1368
I4
sS'ditzy'
p1369
I2
sS'funnier'
p1370
I1
sS'lyndsey'
p1371
I1
sS'performances'
p1372
I5
sS'b-b-but'
p1373
I1
sS'satirical'
p1374
I1
sS'storyline'
p1375
I10
sS'clean'
p1376
I2
sS'notch'
p1377
I1
sS'stoner'
p1378
I1
sS'witherspoon'
p1379
I1
sS'find'
p1380
I10
sS'sayin'
p1381
I1
sS'northern'
p1382
I1
sS'justice'
p1383
I2
sS'writes'
p1384
I4
sS'writer'
p1385
I1
sS'thoughout'
p1386
I1
sS'wayne'
p1387
I1
sS'pretty'
p1388
I9
sS'factor'
p1389
I1
sS'hip'
p1390
I1
sS'his'
p1391
I36
sS'triangle'
p1392
I1
sS'luke'
p1393
I1
sS'william'
p1394
I4
sS'alicia'
p1395
I3
sS'courage'
p1396
I1
sS'rest'
p1397
I3
sS'theft'
p1398
I1
sS'during'
p1399
I2
sS'him'
p1400
I16
sS'alexander'
p1401
I1
sS'hatchet-face'
p1402
I1
sS'showed'
p1403
I3
sS'garcia'
p1404
I1
sS'glover'
p1405
I1
sS'hilarous'
p1406
I1
sS'insane'
p1407
I1
sS'scenery'
p1408
I1
sS'set'
p1409
I4
sS'sex'
p1410
I3
sS'see'
p1411
I37
sS'dumb'
p1412
I2
sS'are'
p1413
I30
sS'close'
p1414
I1
sS'#'
p1415
I2
sS'learns'
p1416
I1
sS'mccallister'
p1417
I1
sS'movie'
p1418
I265
sS'wow'
p1419
I4
sS'case'
p1420
I2
sS'woo'
p1421
I1
sS'won'
p1422
I1
sS'probably'
p1423
I6
sS'endure'
p1424
I1
sS'missing'
p1425
I2
sS'attention'
p1426
I4
sS'ranked'
p1427
I2
sS'premise'
p1428
I1
sS'genre'
p1429
I4
sS'alters'
p1430
I1
sS'both'
p1431
I3
sS'c'
p1432
I2
sS'paltrow'
p1433
I1
sS'lasy'
p1434
I1
sS'barely'
p1435
I1
sS'minorities'
p1436
I1
sS'became'
p1437
I3
sS'fraternity'
p1438
I1
sS'retarded'
p1439
I1
sS'mary--'
p1440
I1
sS'however-'
p1441
I1
sS'whole'
p1442
I9
sS'finds'
p1443
I1
sS'liked'
p1444
I10
sS'point'
p1445
I5
sS'simple'
p1446
I1
sS'sweet'
p1447
I7
sS'acted'
p1448
I1
sS'dudes'
p1449
I1
sS'reccomend'
p1450
I1
sS'dancer'
p1451
I2
sS'likes'
p1452
I1
sS'church'
p1453
I1
sS'throughout'
p1454
I3
sS'create'
p1455
I1
sS'overlook'
p1456
I1
sS'satire'
p1457
I1
sS'backround'
p1458
I1
sS'extravagant'
p1459
I1
sS'woke'
p1460
I1
sS'kathy'
p1461
I6
sS'dialogue'
p1462
I4
sS'lived'
p1463
I2
sS'gay'
p1464
I1
sS'buck'
p1465
I1
sS'crack'
p1466
I1
sS'else'
p1467
I8
sS'anthony'
p1468
I1
sS'lives'
p1469
I2
sS'demand'
p1470
I1
sS'look'
p1471
I7
sS'solid'
p1472
I2
sS'foreshadowed'
p1473
I1
sS'bill'
p1474
I1
sS'hilariously'
p1475
I2
sS'pace'
p1476
I2
sS'while'
p1477
I9
sS'sexuality'
p1478
I1
sS'kick'
p1479
I1
sS'actimg'
p1480
I1
sS'fun'
p1481
I17
sS'hooters'
p1482
I1
sS'lingo'
p1483
I1
sS'theres'
p1484
I1
sS'studied'
p1485
I1
sS'owen'
p1486
I1
sS'quaid'
p1487
I1
sS'leann'
p1488
I1
sS'impersonate'
p1489
I1
sS'funny'
p1490
I58
sS'shirt'
p1491
I1
sS'choking'
p1492
I1
sS'grant'
p1493
I1
sS'wierd'
p1494
I1
sS'ray'
p1495
I3
sS'higher'
p1496
I1
sS'development'
p1497
I2
sS'used'
p1498
I2
sS'imaginery'
p1499
I1
sS'huston'
p1500
I1
sS'stacy'
p1501
I1
sS'000'
p1502
I1
sS'moving'
p1503
I2
sS'birch'
p1504
I1
sS'haunting'
p1505
I1
sS'perabo'
p1506
I3
sS'plugs'
p1507
I1
sS'recent'
p1508
I1
sS'amy'
p1509
I1
sS'lower'
p1510
I1
sS'older'
p1511
I3
sS'reginald'
p1512
I1
sS'spent'
p1513
I1
sS'iffy'
p1514
I1
sS'picks'
p1515
I1
sS'person'
p1516
I4
sS'edge'
p1517
I2
sS'nordic'
p1518
I1
sS'cannes'
p1519
I1
sS'theatres'
p1520
I2
sS'self-confessed'
p1521
I1
sS'chemistry'
p1522
I1
sS'things'
p1523
I11
sS'ceo'
p1524
I1
sS'1960'
p1525
I1
sS'competitive'
p1526
I1
sS'world'
p1527
I3
sS'love'
p1528
I32
sS'retirement'
p1529
I2
sS'majority'
p1530
I1
sS'marrying'
p1531
I1
sS'elfman'
p1532
I6
sS'exclusively'
p1533
I1
sS'prudish'
p1534
I1
sS'questioned'
p1535
I1
sS'soooooo'
p1536
I1
sS'courtney'
p1537
I1
sS'surprised'
p1538
I3
sS'build'
p1539
I2
sS'big'
p1540
I7
sS'showing'
p1541
I1
sS'spoof'
p1542
I1
sS'bit'
p1543
I4
sS'forman'
p1544
I1
sS'd'
p1545
I6
sS'sincerely'
p1546
I1
sS'message'
p1547
I1
sS'collect'
p1548
I1
sS'spins'
p1549
I1
sS'ijr'
p1550
I1
sS'often'
p1551
I3
sS'humorous'
p1552
I2
sS'pals'
p1553
I1
sS'alicat'
p1554
I1
sS'some'
p1555
I19
sS'back'
p1556
I7
sS'economic'
p1557
I1
sS'erupts'
p1558
I1
sS'curious'
p1559
I1
sS'seller'
p1560
I1
sS'competitions'
p1561
I1
sS'religion'
p1562
I3
sS'prom'
p1563
I1
sS'slapstick'
p1564
I1
sS't'
p1565
I50
sS'amazin'
p1566
I3
sS'be'
p1567
I53
sS'word'
p1568
I3
sS'bt'
p1569
I1
sS'macauly'
p1570
I1
sS'chick'
p1571
I3
sS'crap'
p1572
I1
sS'by'
p1573
I14
sS'anything'
p1574
I5
sS'graduation'
p1575
I1
sS'drama'
p1576
I2
sS'wickes'
p1577
I1
sS'experiences'
p1578
I1
sS'classics'
p1579
I1
sS'seeing'
p1580
I3
sS'every1'
p1581
I1
sS'colorado'
p1582
I2
sS'garbage'
p1583
I1
sS'terrorists'
p1584
I3
sS'into'
p1585
I9
sS'within'
p1586
I1
sS'climbin'
p1587
I1
sS'primarily'
p1588
I1
sS'steven'
p1589
I1
sS'impressed'
p1590
I1
sS'retrieving'
p1591
I1
sS'long'
p1592
I1
sS':'
p1593
I6
sS'funnest'
p1594
I1
sS'himself'
p1595
I2
sS'jewish'
p1596
I1
sS'murphy'
p1597
I2
sS'action-film'
p1598
I1
sS'alive'
p1599
I3
sS'hopes'
p1600
I1
sS'episode'
p1601
I1
sS'line'
p1602
I5
sS'dull'
p1603
I2
sS'directed'
p1604
I3
sS'charmed'
p1605
I1
sS'up'
p1606
I24
sS'us'
p1607
I3
sS'ur'
p1608
I2
sS'clips'
p1609
I1
sS'uh'
p1610
I1
sS'unbeleivably'
p1611
I1
sS'similar'
p1612
I1
sS'professor'
p1613
I1
sS'kill-the-bad-guys'
p1614
I1
sS'fans'
p1615
I2
sS'influence'
p1616
I1
sS'doesn'
p1617
I2
sS'rediculous'
p1618
I1
sS'single'
p1619
I1
sS'home'
p1620
I3
sS'psychopath'
p1621
I1
sS'thugs'
p1622
I1
sS'deside'
p1623
I1
sS'occasional'
p1624
I1
sS'nick'
p1625
I1
sS'points'
p1626
I1
sS'actors'
p1627
I7
sS'nice'
p1628
I1
sS'elements'
p1629
I1
sS'scrub'
p1630
I1
sS'favourite'
p1631
I3
sS'problems'
p1632
I3
sS'liners'
p1633
I1
sS'frances'
p1634
I2
sS'helping'
p1635
I1
sS'utterly'
p1636
I2
sS'miles'
p1637
I1
sS'e'
p1638
I2
sS'practically'
p1639
I1
sS'dvd'
p1640
I4
sS'age'
p1641
I9
sS'vehicles'
p1642
I1
sS'amused'
p1643
I1
sS'2002'
p1644
I2
sS'2001'
p1645
I1
sS'far'
p1646
I3
sS'fresh'
p1647
I1
sS'requires'
p1648
I1
sS'having'
p1649
I2
sS'once'
p1650
I2
sS'portraying'
p1651
I1
sS'nuns'
p1652
I1
sS'steve'
p1653
I7
sS'go'
p1654
I11
sS'gossip'
p1655
I3
sS'centers'
p1656
I1
sS'issues'
p1657
I1
sS'seemed'
p1658
I2
sS'documentary'
p1659
I1
sS'young'
p1660
I3
sS'dislike'
p1661
I1
sS'silverstone'
p1662
I2
sS'queen'
p1663
I3
sS'materialise'
p1664
I1
sS'surgeon'
p1665
I1
sS'entire'
p1666
I4
sS'disfunctional'
p1667
I1
sS'joel'
p1668
I1
sS'michael'
p1669
I1
sS'try'
p1670
I2
sS'race'
p1671
I2
sS'dealt'
p1672
I1
sS'ride'
p1673
I2
sS'waking'
p1674
I1
sS'jump'
p1675
I1
sS'video'
p1676
I3
sS'picked'
p1677
I3
sS'manipulating'
p1678
I1
sS'odd'
p1679
I1
sS'click'
p1680
I1
sS'turn'
p1681
I2
sS'plays'
p1682
I8
sS'giving'
p1683
I1
sS'piper'
p1684
I3
sS'waiting'
p1685
I2
sS';'
p1686
I9
sS'body'
p1687
I1
sS'lee'
p1688
I1
sS'kidnapper'
p1689
I1
sS'believed'
p1690
I1
sS'sink'
p1691
I1
sS'others'
p1692
I1
sS'sexy'
p1693
I3
sS'delinquent'
p1694
I1
sS'great'
p1695
I105
sS'talent'
p1696
I2
sS'33'
p1697
I1
sS'involved'
p1698
I1
sS'poignant'
p1699
I2
sS'35'
p1700
I1
sS'resulting'
p1701
I1
sS'gene'
p1702
I3
sS'makes'
p1703
I8
sS'involves'
p1704
I1
sS'named'
p1705
I2
sS'win'
p1706
I1
sS'limp'
p1707
I1
sS'manage'
p1708
I1
sS'sgt'
p1709
I1
sS'offends'
p1710
I1
sS'locane'
p1711
I1
sS'moonlighting'
p1712
I1
sS'all-white'
p1713
I1
sS'composer'
p1714
I1
sS'hards'
p1715
I1
sS'singing'
p1716
I7
sS'dosent'
p1717
I1
sS'francis'
p1718
I1
sS'from'
p1719
I31
sS'&'
p1720
I2
sS'next'
p1721
I3
sS'few'
p1722
I5
sS'doubt'
p1723
I2
sS'fer'
p1724
I2
sS'reflects'
p1725
I1
sS'fey'
p1726
I1
sS'sort'
p1727
I1
sS'gained'
p1728
I1
sS'clever'
p1729
I2
sS'babe'
p1730
I1
sS'interpetation'
p1731
I1
sS'started'
p1732
I1
sS'becomes'
p1733
I2
sS'about'
p1734
I42
sS'charming'
p1735
I1
sS'payne'
p1736
I1
sS'trail'
p1737
I1
sS'baby'
p1738
I1
sS'nypd'
p1739
I1
sS'women'
p1740
I5
sS'depiction'
p1741
I1
sS'balls'
p1742
I1
sS'this'
p1743
I185
sS'challenge'
p1744
I1
sS'hopkins'
p1745
I2
sS'obvious'
p1746
I2
sS'meet'
p1747
I1
sS'didnt'
p1748
I3
sS'blaine'
p1749
I4
sS'tap'
p1750
I2
sS'high'
p1751
I5
sS'definetley'
p1752
I1
sS'villain'
p1753
I1
sS'something'
p1754
I6
sS'hit'
p1755
I2
sS'serial'
p1756
I1
sS'lame'
p1757
I2
sS'cliches'
p1758
I1
sS'holds'
p1759
I2
sS'brian'
p1760
I1
sS'trilogy'
p1761
I3
sS'comedy'
p1762
I31
sS'tension'
p1763
I1
sS'buildings'
p1764
I1
sS'stop'
p1765
I1
sS'waters'
p1766
I2
sS'masks'
p1767
I1
sS'mixed'
p1768
I1
sS'abuse'
p1769
I1
sS'light'
p1770
I2
sS'sit'
p1771
I3
sS'lines'
p1772
I2
sS'claire'
p1773
I1
sS'holidays'
p1774
I1
sS'counted'
p1775
I1
sS'jailhouse'
p1776
I1
sS'pretending'
p1777
I1
sS'move'
p1778
I1
sS'looks'
p1779
I3
sS'charlene'
p1780
I1
sS'warren'
p1781
I1
sS'perfect'
p1782
I10
sS'superior'
p1783
I1
sS'll'
p1784
I8
sS'winning'
p1785
I2
sS'willing'
p1786
I1
sS'tenenbaum'
p1787
I1
sS'dermot'
p1788
I1
sS'criminal'
p1789
I1
sS'defining'
p1790
I1
sS'pure'
p1791
I1
sS'dan'
p1792
I1
sS'earn'
p1793
I1
sS'gwyneth'
p1794
I1
sS'mention'
p1795
I1
sS'snake'
p1796
I1
sS'instead'
p1797
I1
sS'day'
p1798
I6
sS'presidential'
p1799
I1
sS'worlds'
p1800
I1
sS'personally'
p1801
I1
sS'unpredictable'
p1802
I1
sS'delightful'
p1803
I1
sS'betty'
p1804
I1
sS'tv-brainsucker-victims'
p1805
I1
sS'doing'
p1806
I4
sS'levy'
p1807
I1
sS'related'
p1808
I1
sS'society'
p1809
I2
sS'interplay'
p1810
I1
sS'our'
p1811
I4
sS'salesman'
p1812
I2
sS'special'
p1813
I1
sS'out'
p1814
I28
sS'category'
p1815
I1
sS"'"
p1816
I183
sS'entertainment'
p1817
I4
sS'cerebral'
p1818
I2
sS'chaos'
p1819
I1
sS'critics'
p1820
I2
sS'superbly'
p1821
I1
sS'performs'
p1822
I1
sS'hilarious'
p1823
I25
sS'cause'
p1824
I2
sS'red'
p1825
I1
sS'ricki'
p1826
I1
sS'scumbag'
p1827
I1
sS'coen'
p1828
I6
sS'completely'
p1829
I2
sS'surely'
p1830
I1
sS'york'
p1831
I2
sS'advisor'
p1832
I1
sS'early'
p1833
I1
sS'scary'
p1834
I2
sS'could'
p1835
I7
sS'shoot-em-up'
p1836
I1
sS'times'
p1837
I13
sS'produce'
p1838
I1
sS'davis'
p1839
I2
sS'austin'
p1840
I3
sS'shucks'
p1841
I1
sS'strippers'
p1842
I1
sS'helarious'
p1843
I1
sS'blown'
p1844
I1
sS'scene'
p1845
I6
sS'sack'
p1846
I1
sS'adrenalizing'
p1847
I1
sS'quality'
p1848
I1
sS'lolita'
p1849
I1
sS'management'
p1850
I1
sS'festival'
p1851
I1
sS'unknown'
p1852
I1
sS'chased'
p1853
I1
sS'relations'
p1854
I1
sS'their'
p1855
I12
sS'wilders'
p1856
I1
sS'norton'
p1857
I6
sS'perfectly'
p1858
I2
sS'final'
p1859
I1
sS'painful'
p1860
I1
sS'lot'
p1861
I10
sS'shorts'
p1862
I1
sS'exactly'
p1863
I1
sS'intereste'
p1864
I1
sS'herself'
p1865
I1
sS'favortie'
p1866
I1
sS'loved'
p1867
I24
sS'heartedly'
p1868
I1
sS'ben'
p1869
I5
sS'wet'
p1870
I1
sS'cravings'
p1871
I1
sS'maybe'
p1872
I1
sS'kubrick'
p1873
I1
sS'ndugu'
p1874
I3
sS't-hurt-me'
p1875
I1
sS'viewer'
p1876
I1
sS'teenagers'
p1877
I4
sS'goldberg'
p1878
I6
sS'unlikely'
p1879
I1
sS'have'
p1880
I43
sS'blockbuster'
p1881
I1
sS'hallirous'
p1882
I1
sS'catholic'
p1883
I1
sS'bastard'
p1884
I1
sS'angle'
p1885
I1
sS'agency'
p1886
I2
sS'chief'
p1887
I2
sS'ahold'
p1888
I1
sS'which'
p1889
I15
sS'hackman'
p1890
I2
sS'aww'
p1891
I1
sS'who'
p1892
I39
sS'eight'
p1893
I1
sS'highschool'
p1894
I1
sS'why'
p1895
I5
sS'guffman'
p1896
I1
sS'refreshing'
p1897
I2
sS'nicholson'
p1898
I8
sS'face'
p1899
I4
sS'normally'
p1900
I1
sS'fact'
p1901
I1
sS'atmosphere'
p1902
I1
sS'anyway'
p1903
I1
sS'brother'
p1904
I1
sS'unbelievable'
p1905
I1
sS'bring'
p1906
I4
sS'feat'
p1907
I1
sS'pleased'
p1908
I1
sS'decade'
p1909
I1
sS'editing'
p1910
I1
sS'based'
p1911
I2
sS'sheriff'
p1912
I2
sS'craziness'
p1913
I1
sS'('
p1914
I27
sS'stormare'
p1915
I1
sS'thosee'
p1916
I1
sS'should'
p1917
I8
sS'b'
p1918
I1
sS'local'
p1919
I2
sS'hope'
p1920
I1
sS'means'
p1921
I1
sS'beat'
p1922
I1
sS'props'
p1923
I1
sS'overall'
p1924
I2
sS'hire'
p1925
I1
sS'community'
p1926
I1
sS'words'
p1927
I1
sS'127'
p1928
I1
sS'following'
p1929
I1
sS'course'
p1930
I4
sS'h'
p1931
I4
sS'married'
p1932
I1
sS'affluent'
p1933
I1
sS'stuff'
p1934
I2
sS'she'
p1935
I16
sS'ohio'
p1936
I1
sS'grab'
p1937
I1
sS'gibson'
p1938
I4
sS'view'
p1939
I1
sS'stars--whoopi'
p1940
I1
sS'exists'
p1941
I1
sS'orphan'
p1942
I1
sS'driveway'
p1943
I1
sS'violet'
p1944
I1
sS'10-year-old'
p1945
I1
sS'packed'
p1946
I4
sS'implausibilities'
p1947
I1
sS'superhero'
p1948
I2
sS'luv'
p1949
I1
sS'gunderson'
p1950
I3
sS'dramawise'
p1951
I1
sS'superb'
p1952
I1
sS'genius'
p1953
I4
sS'written'
p1954
I1
sS'exellent'
p1955
I1
sS'flicks'
p1956
I2
sS'bought'
p1957
I2
sS'explosive'
p1958
I1
sS'sorely'
p1959
I1
sS'joy'
p1960
I1
sS'deliver'
p1961
I1
sS'kicking'
p1962
I1
sS'job'
p1963
I6
sS'joe'
p1964
I1
sS'key'
p1965
I1
sS'david'
p1966
I1
sS'instant'
p1967
I1
sS'career'
p1968
I1
sS'goal'
p1969
I1
sS'taking'
p1970
I1
sS'equal'
p1971
I1
sS'etc'
p1972
I3
sS'admit'
p1973
I1
sS'feinds'
p1974
I1
sS'otherwise'
p1975
I1
sS'wallach'
p1976
I1
sS'cl'
p1977
I1
sS'walk'
p1978
I1
sS'squezzy'
p1979
I1
sS'lundegaard'
p1980
I4
sS'keitel'
p1981
I1
sS'sequences'
p1982
I1
sS'respect'
p1983
I1
sS'uninitiated'
p1984
I1
sS'addition'
p1985
I1
sS'taste'
p1986
I1
sS'teamwork'
p1987
I1
sS'upbeat'
p1988
I1
sS'choose'
p1989
I1
sS'divinely'
p1990
I1
sS'received'
p1991
I1
sS'goddess'
p1992
I1
sS'last'
p1993
I1
sS'reeves'
p1994
I1
sS'corky'
p1995
I1
sS'present'
p1996
I1
sS'holiday'
p1997
I1
sS'unlike'
p1998
I1
sS'crowds'
p1999
I1
sS'value'
p2000
I1
sS'will'
p2001
I15
sS'country'
p2002
I3
sS'wild'
p2003
I2
sS've'
p2004
I6
sS'almost'
p2005
I2
sS'insanely'
p2006
I1
sS'possiblly'
p2007
I1
sS'lundergard'
p2008
I1
sS'hearted'
p2009
I2
sS'partner'
p2010
I1
sS'portray'
p2011
I1
sS'begining'
p2012
I1
sS'terrorist'
p2013
I1
sS'perhaps'
p2014
I4
sS'funniest'
p2015
I11
sS'romance'
p2016
I1
sS'strange'
p2017
I1
sS'gets'
p2018
I4
sS'difficult'
p2019
I1
sS'alot'
p2020
I1
sS'emotionally'
p2021
I1
sS'eccentric'
p2022
I3
sS'definately'
p2023
I5
sS'effect'
p2024
I1
sS'student'
p2025
I1
sS'yoou'
p2026
I1
sS'identity'
p2027
I1
sS'pleasantly'
p2028
I1
sS'off'
p2029
I8
sS'i'
p2030
I259
sS'shotgun'
p2031
I1
sS'weapon'
p2032
I1
sS'nonetheless'
p2033
I1
sS'well'
p2034
I26
sS'fighting'
p2035
I2
sS'thought'
p2036
I13
sS'1'
p2037
I1
sS'sets'
p2038
I1
sS'veljohnson'
p2039
I1
sS'excessive'
p2040
I1
sS'less'
p2041
I4
sS'moments'
p2042
I3
sS'boot'
p2043
I1
sS'hands'
p2044
I1
sS'arriving'
p2045
I1
sS'ads'
p2046
I1
sS'panther'
p2047
I1
sS'lake'
p2048
I1
sS'wes'
p2049
I1
sS'other'
p2050
I6
sS'attractive'
p2051
I2
sS'citizen'
p2052
I1
sS'smart'
p2053
I3
sS'sick'
p2054
I1
sS'pants'
p2055
I2
sS'interrogation'
p2056
I1
sS'five'
p2057
I2
sS'know'
p2058
I8
sS'sponsers'
p2059
I1
sS'like'
p2060
I38
sS'lost'
p2061
I2
sS'candy'
p2062
I1
sS'f----er'
p2063
I1
sS'martin'
p2064
I2
sS'become'
p2065
I3
sS'starred'
p2066
I1
sS'works'
p2067
I1
sS'farrelly'
p2068
I1
sS'adaptation'
p2069
I3
sS'because'
p2070
I12
sS'sequence'
p2071
I1
sS'fending'
p2072
I1
sS'birthmark'
p2073
I1
sS'hail'
p2074
I1
sS'hair'
p2075
I1
sS'thier'
p2076
I1
sS'liking'
p2077
I1
sS'peter'
p2078
I4
sS'60s'
p2079
I1
sS'lead'
p2080
I3
sS'philosopher'
p2081
I1
sS'constantly'
p2082
I1
sS'does'
p2083
I6
sS'sponsoring'
p2084
I2
sS'wendy'
p2085
I1
sS'assuming'
p2086
I1
sS'hysterically'
p2087
I1
sS'shouldve'
p2088
I1
sS'?'
p2089
I22
sS'slower'
p2090
I1
sS'blowing'
p2091
I1
sS'mcclain'
p2092
I2
sS'combative'
p2093
I1
sS'uptight'
p2094
I1
sS'although'
p2095
I2
sS'whacky'
p2096
I1
sS'hiding'
p2097
I1
sS'dufus'
p2098
I1
sS'sister'
p2099
I5
sS'actual'
p2100
I1
sS'carried'
p2101
I1
sS'extension'
p2102
I1
sS'getting'
p2103
I2
sS'diabolical'
p2104
I1
sS'turtle'
p2105
I1
sS'own'
p2106
I7
sS'letters'
p2107
I3
sS'cocoa'
p2108
I1
sS'weather'
p2109
I1
sS'promise'
p2110
I1
sS'female'
p2111
I1
sS'quickly'
p2112
I1
sS'dituation'
p2113
I1
sS'spots'
p2114
I1
sS'biggest'
p2115
I1
sS'exposure'
p2116
I1
sS'buy'
p2117
I4
sS'bus'
p2118
I1
sS'sequel'
p2119
I4
sS'but'
p2120
I55
sS'delivery'
p2121
I1
sS'hi'
p2122
I1
sS'marge'
p2123
I1
sS'ha'
p2124
I1
sS'he'
p2125
I51
sS'made'
p2126
I22
sS'inevitability'
p2127
I1
sS'whether'
p2128
I2
sS'wish'
p2129
I1
sS'flip'
p2130
I1
sS'placed'
p2131
I1
sS'limit'
p2132
I1
sS'problem'
p2133
I1
sS'piece'
p2134
I1
sS'minutes'
p2135
I1
sS'sweetheart'
p2136
I1
sS'beats'
p2137
I1
sS'father-in-law'
p2138
I1
sS'anjelica'
p2139
I1
sS'identities'
p2140
I2
sS'jenna'
p2141
I6
sS'deeper'
p2142
I1
sS'compared'
p2143
I1
sS'incredible'
p2144
I1
sS'42'
p2145
I1
sS'lately'
p2146
I1
sS'book'
p2147
I3
sS'dim'
p2148
I1
sS'incredibly'
p2149
I1
sS'conclusion'
p2150
I1
sS'class'
p2151
I2
sS'ultimately'
p2152
I1
sS'chance'
p2153
I2
sS'humbe'
p2154
I1
sS'kinda'
p2155
I2
sS'sandler'
p2156
I4
sS'badass'
p2157
I1
sS'friends'
p2158
I8
sS'inspiration'
p2159
I1
sS'pesci'
p2160
I1
sS'sentiment'
p2161
I1
sS'ranks'
p2162
I1
sS'rule'
p2163
I1
sS'intentionally'
p2164
I3
sS'hiker'
p2165
I1
sS'mercenary'
p2166
I1
sS'understand'
p2167
I1
sS'8th'
p2168
I1
s.